; ModuleID = '54/166.c'
source_filename = "54/166.c"
target datalayout = "e-m:e-p270:32:32-p271:32:32-p272:64:64-i64:64-f80:128-n8:16:32:64-S128"
target triple = "x86_64-pc-linux-gnu"

@.str = private unnamed_addr constant [6 x i8] c"%d %d\00", align 1
@.str.1 = private unnamed_addr constant [3 x i8] c"%d\00", align 1

; Function Attrs: noinline nounwind uwtable
define dso_local void @main() #0 {
  %1 = alloca i32, align 4
  %2 = alloca i32, align 4
  %3 = alloca i32, align 4
  %4 = alloca i32, align 4
  %5 = alloca i32, align 4
  %6 = alloca i32, align 4
  %7 = alloca i32, align 4
  store i32 1, i32* %6, align 4
  %8 = call i32 (i8*, ...) @__isoc99_scanf(i8* getelementptr inbounds ([6 x i8], [6 x i8]* @.str, i64 0, i64 0), i32* %1, i32* %3)
  store i32 1, i32* %6, align 4
  br label %9

9:                                                ; preds = %25, %0
  %10 = load i32, i32* %6, align 4
  %11 = load i32, i32* %1, align 4
  %12 = mul nsw i32 %10, %11
  %13 = load i32, i32* %3, align 4
  %14 = add nsw i32 %12, %13
  store i32 %14, i32* %5, align 4
  store i32 1, i32* %2, align 4
  br label %15

15:                                               ; preds = %45, %9
  %16 = load i32, i32* %5, align 4
  %17 = load i32, i32* %1, align 4
  %18 = sub nsw i32 %17, 1
  %19 = sdiv i32 %16, %18
  store i32 %19, i32* %4, align 4
  %20 = load i32, i32* %5, align 4
  %21 = load i32, i32* %1, align 4
  %22 = sub nsw i32 %21, 1
  %23 = srem i32 %20, %22
  %24 = icmp ne i32 %23, 0
  br i1 %24, label %25, label %28

25:                                               ; preds = %15
  %26 = load i32, i32* %6, align 4
  %27 = add nsw i32 %26, 1
  store i32 %27, i32* %6, align 4
  br label %9

28:                                               ; preds = %15
  %29 = load i32, i32* %5, align 4
  %30 = load i32, i32* %1, align 4
  %31 = sub nsw i32 %30, 1
  %32 = srem i32 %29, %31
  %33 = icmp eq i32 %32, 0
  br i1 %33, label %34, label %50

34:                                               ; preds = %28
  %35 = load i32, i32* %5, align 4
  %36 = load i32, i32* %4, align 4
  %37 = add nsw i32 %35, %36
  %38 = load i32, i32* %3, align 4
  %39 = add nsw i32 %37, %38
  store i32 %39, i32* %5, align 4
  %40 = load i32, i32* %2, align 4
  %41 = add nsw i32 %40, 1
  store i32 %41, i32* %2, align 4
  %42 = load i32, i32* %2, align 4
  %43 = load i32, i32* %1, align 4
  %44 = icmp slt i32 %42, %43
  br i1 %44, label %45, label %46

45:                                               ; preds = %34
  br label %15

46:                                               ; preds = %34
  %47 = load i32, i32* %5, align 4
  %48 = call i32 (i8*, ...) @printf(i8* getelementptr inbounds ([3 x i8], [3 x i8]* @.str.1, i64 0, i64 0), i32 %47)
  br label %49

49:                                               ; preds = %46
  br label %50

50:                                               ; preds = %49, %28
  ret void
}

declare dso_local i32 @__isoc99_scanf(i8*, ...) #1

declare dso_local i32 @printf(i8*, ...) #1


!llvm.module.flags = !{!0}
!llvm.ident = !{!1}

!0 = !{i32 1, !"wchar_size", i32 4}
!1 = !{!"clang version 10.0.0-4ubuntu1 "}
